target datalayout = "e-m:e-p270:32:32-p271:32:32-p272:64:64-i64:64-i128:128-f80:128-n8:16:32:64-S128"
target triple = "x86_64-pc-linux-gnu"

%struct.testdata = type { ptr, ptr, i64, i8 }

@.str.3 = private unnamed_addr constant [30 x i8] c"../openssl/test/hexstr_test.c\00", align 1
@.str.4 = private unnamed_addr constant [53 x i8] c"buf = ossl_hexstr2buf_sep(test->in, &len, test->sep)\00", align 1
@.str.5 = private unnamed_addr constant [4 x i8] c"buf\00", align 1
@.str.6 = private unnamed_addr constant [15 x i8] c"test->expected\00", align 1
@.str.7 = private unnamed_addr constant [47 x i8] c"out = ossl_buf2hexstr_sep(buf, len, test->sep)\00", align 1
@.str.8 = private unnamed_addr constant [4 x i8] c"out\00", align 1
@.str.9 = private unnamed_addr constant [9 x i8] c"test->in\00", align 1

; Function Attrs: nounwind uwtable
define internal i32 @test_hexstr_sep_to_from(i32 noundef %0) #0 {
  %2 = alloca i32, align 4
  %3 = alloca i32, align 4
  %4 = alloca i64, align 8
  %5 = alloca ptr, align 8
  %6 = alloca ptr, align 8
  %7 = alloca ptr, align 8
  store i32 %0, ptr %2, align 4, !tbaa !4
  call void @llvm.lifetime.start.p0(i64 4, ptr %3) #4
  store i32 0, ptr %3, align 4, !tbaa !4
  call void @llvm.lifetime.start.p0(i64 8, ptr %4) #4
  store i64 0, ptr %4, align 8, !tbaa !8
  call void @llvm.lifetime.start.p0(i64 8, ptr %5) #4
  store ptr null, ptr %5, align 8, !tbaa !10
  call void @llvm.lifetime.start.p0(i64 8, ptr %6) #4
  store ptr null, ptr %6, align 8, !tbaa !10
  call void @llvm.lifetime.start.p0(i64 8, ptr %7) #4
  %8 = load i32, ptr %2, align 4, !tbaa !4
  %9 = sext i32 %8 to i64
  %10 = getelementptr inbounds [6 x %struct.testdata], ptr @tbl_testdata, i64 0, i64 %9
  store ptr %10, ptr %7, align 8, !tbaa !13
  %11 = load ptr, ptr %7, align 8, !tbaa !13
  %12 = getelementptr inbounds nuw %struct.testdata, ptr %11, i32 0, i32 0
  %13 = load ptr, ptr %12, align 8, !tbaa !15
  %14 = load ptr, ptr %7, align 8, !tbaa !13
  %15 = getelementptr inbounds nuw %struct.testdata, ptr %14, i32 0, i32 3
  %16 = load i8, ptr %15, align 8, !tbaa !17
  %17 = call ptr @ossl_hexstr2buf_sep(ptr noundef %13, ptr noundef %4, i8 noundef signext %16)
  store ptr %17, ptr %5, align 8, !tbaa !10
  %18 = call i32 @test_ptr(ptr noundef @.str.3, i32 noundef 70, ptr noundef @.str.4, ptr noundef %17)
  %19 = icmp ne i32 %18, 0
  br i1 %19, label %20, label %47

20:                                               ; preds = %1
  %21 = load ptr, ptr %5, align 8, !tbaa !10
  %22 = load i64, ptr %4, align 8, !tbaa !8
  %23 = load ptr, ptr %7, align 8, !tbaa !13
  %24 = getelementptr inbounds nuw %struct.testdata, ptr %23, i32 0, i32 1
  %25 = load ptr, ptr %24, align 8, !tbaa !18
  %26 = load ptr, ptr %7, align 8, !tbaa !13
  %27 = getelementptr inbounds nuw %struct.testdata, ptr %26, i32 0, i32 2
  %28 = load i64, ptr %27, align 8, !tbaa !19
  %29 = call i32 @test_mem_eq(ptr noundef @.str.3, i32 noundef 71, ptr noundef @.str.5, ptr noundef @.str.6, ptr noundef %21, i64 noundef %22, ptr noundef %25, i64 noundef %28)
  %30 = icmp ne i32 %29, 0
  br i1 %30, label %31, label %47

31:                                               ; preds = %20
  %32 = load ptr, ptr %5, align 8, !tbaa !10
  %33 = load i64, ptr %4, align 8, !tbaa !8
  %34 = load ptr, ptr %7, align 8, !tbaa !13
  %35 = getelementptr inbounds nuw %struct.testdata, ptr %34, i32 0, i32 3
  %36 = load i8, ptr %35, align 8, !tbaa !17
  %37 = call ptr @ossl_buf2hexstr_sep(ptr noundef %32, i64 noundef %33, i8 noundef signext %36)
  store ptr %37, ptr %6, align 8, !tbaa !10
  %38 = call i32 @test_ptr(ptr noundef @.str.3, i32 noundef 72, ptr noundef @.str.7, ptr noundef %37)
  %39 = icmp ne i32 %38, 0
  br i1 %39, label %40, label %47

40:                                               ; preds = %31
  %41 = load ptr, ptr %6, align 8, !tbaa !10
  %42 = load ptr, ptr %7, align 8, !tbaa !13
  %43 = getelementptr inbounds nuw %struct.testdata, ptr %42, i32 0, i32 0
  %44 = load ptr, ptr %43, align 8, !tbaa !15
  %45 = call i32 @test_str_eq(ptr noundef @.str.3, i32 noundef 73, ptr noundef @.str.8, ptr noundef @.str.9, ptr noundef %41, ptr noundef %44)
  %46 = icmp ne i32 %45, 0
  br i1 %46, label %48, label %47

47:                                               ; preds = %40, %31, %20, %1
  br label %49

48:                                               ; preds = %40
  store i32 1, ptr %3, align 4, !tbaa !4
  br label %49

49:                                               ; preds = %48, %47
  %50 = load ptr, ptr %5, align 8, !tbaa !10
  call void @CRYPTO_free(ptr noundef %50, ptr noundef @.str.3, i32 noundef 78)
  %51 = load ptr, ptr %6, align 8, !tbaa !10
  call void @CRYPTO_free(ptr noundef %51, ptr noundef @.str.3, i32 noundef 79)
  %52 = load i32, ptr %3, align 4, !tbaa !4
  call void @llvm.lifetime.end.p0(i64 8, ptr %7) #4
  call void @llvm.lifetime.end.p0(i64 8, ptr %6) #4
  call void @llvm.lifetime.end.p0(i64 8, ptr %5) #4
  call void @llvm.lifetime.end.p0(i64 8, ptr %4) #4
  call void @llvm.lifetime.end.p0(i64 4, ptr %3) #4
  ret i32 %52
}