; Function Attrs: nounwind uwtable
define internal range(i32 0, 2) i32 @test_hexstr_sep_to_from(i32 noundef %0) #0 {
  %2 = alloca i64, align 8
  call void @llvm.lifetime.start.p0(i64 8, ptr nonnull %2) #4
  store i64 0, ptr %2, align 8, !tbaa !4
  %3 = sext i32 %0 to i64
  %4 = getelementptr inbounds [6 x %struct.testdata], ptr @tbl_testdata, i64 0, i64 %3
  %5 = load ptr, ptr %4, align 16, !tbaa !8
  %6 = getelementptr inbounds nuw i8, ptr %4, i64 24
  %7 = load i8, ptr %6, align 8, !tbaa !12
  %8 = call ptr @ossl_hexstr2buf_sep(ptr noundef %5, ptr noundef nonnull %2, i8 noundef signext %7) #4
  %9 = call i32 @test_ptr(ptr noundef nonnull @.str.3, i32 noundef 70, ptr noundef nonnull @.str.4, ptr noundef %8) #4
  %.not = icmp eq i32 %9, 0
  br i1 %.not, label %23, label %10

10:                                               ; preds = %1
  %11 = load i64, ptr %2, align 8, !tbaa !4
  %12 = getelementptr inbounds nuw i8, ptr %4, i64 8
  %13 = load ptr, ptr %12, align 8, !tbaa !13
  %14 = getelementptr inbounds nuw i8, ptr %4, i64 16
  %15 = load i64, ptr %14, align 16, !tbaa !14
  %16 = call i32 @test_mem_eq(ptr noundef nonnull @.str.3, i32 noundef 71, ptr noundef nonnull @.str.5, ptr noundef nonnull @.str.6, ptr noundef %8, i64 noundef %11, ptr noundef %13, i64 noundef %15) #4
  %.not13 = icmp eq i32 %16, 0
  br i1 %.not13, label %23, label %17

17:                                               ; preds = %10
  %18 = load i64, ptr %2, align 8, !tbaa !4
  %19 = call ptr @ossl_buf2hexstr_sep(ptr noundef %8, i64 noundef %18, i8 noundef signext %7) #4
  %20 = call i32 @test_ptr(ptr noundef nonnull @.str.3, i32 noundef 72, ptr noundef nonnull @.str.7, ptr noundef %19) #4
  %.not14 = icmp eq i32 %20, 0
  br i1 %.not14, label %23, label %21

21:                                               ; preds = %17
  %22 = call i32 @test_str_eq(ptr noundef nonnull @.str.3, i32 noundef 73, ptr noundef nonnull @.str.8, ptr noundef nonnull @.str.9, ptr noundef %19, ptr noundef %5) #4
  %.not15 = icmp ne i32 %22, 0
  %spec.select = zext i1 %.not15 to i32
  br label %23

23:                                               ; preds = %21, %1, %10, %17
  %.012 = phi ptr [ %19, %17 ], [ null, %10 ], [ null, %1 ], [ %19, %21 ]
  %.0 = phi i32 [ 0, %17 ], [ 0, %10 ], [ 0, %1 ], [ %spec.select, %21 ]
  call void @CRYPTO_free(ptr noundef %8, ptr noundef nonnull @.str.3, i32 noundef 78) #4
  call void @CRYPTO_free(ptr noundef %.012, ptr noundef nonnull @.str.3, i32 noundef 79) #4
  call void @llvm.lifetime.end.p0(i64 8, ptr nonnull %2) #4
  ret i32 %.0
}